Certificate:
    Data:
        Version: 3 (0x2)
        Serial Number:
            fc:39:7d:8f:02:3a:46:3e:38:bb:ff:18:91:a6:8d:7a
    Signature Algorithm: sha256WithRSAEncryption
        Issuer: CN=Easy-RSA CA
        Validity
            Not Before: May  6 07:47:34 2022 GMT
            Not After : Aug  8 07:47:34 2024 GMT
        Subject: CN=kafka-debug
        Subject Public Key Info:
            Public Key Algorithm: rsaEncryption
                Public-Key: (2048 bit)
                Modulus:
                    00:99:5a:dd:ee:b7:6e:32:d6:3e:4c:e4:b7:e8:f3:
                    82:39:2a:eb:2f:cf:96:ef:85:1f:70:b6:c0:8b:71:
                    85:0f:60:f0:03:8b:10:db:d3:01:1b:04:e9:d7:d8:
                    7d:45:c4:84:e5:e2:dd:82:1a:14:98:ae:1b:d3:25:
                    9a:1f:2d:a3:fe:28:42:4e:47:a5:d7:67:1b:0c:0f:
                    ec:b0:77:8a:ec:9b:a8:38:92:b0:54:9d:b5:4f:3f:
                    d7:96:14:9a:10:31:a1:ff:3c:d5:41:ef:06:c1:83:
                    8e:bd:96:d0:fe:67:d4:ef:9e:96:17:00:64:6b:87:
                    c1:05:c9:1a:2b:bf:c9:f9:0a:c1:56:b8:02:30:4c:
                    22:da:80:ba:c7:d1:c6:29:75:b6:13:4b:1f:a0:50:
                    27:8c:d2:1b:4b:28:ed:5f:bc:df:f9:55:e4:62:a2:
                    d5:b8:99:6f:8c:5d:45:95:5d:75:7a:77:38:bd:86:
                    12:1b:16:05:e1:45:1c:b7:80:06:28:02:6d:41:7d:
                    9c:99:45:47:ad:b5:62:30:19:f3:57:94:e3:01:42:
                    93:9a:ee:74:9d:d0:c8:73:28:8d:1e:54:45:68:c4:
                    33:82:1e:ae:47:bc:67:68:95:16:2f:fe:6d:53:14:
                    18:f3:37:4b:ac:ce:3a:9b:92:55:99:80:0b:ad:a4:
                    0e:3f
                Exponent: 65537 (0x10001)
        X509v3 extensions:
            X509v3 Basic Constraints: 
                CA:FALSE
            X509v3 Subject Key Identifier: 
                E7:06:DF:3D:16:CA:78:16:98:18:A2:F2:FB:D4:D6:35:64:19:90:3F
            X509v3 Authority Key Identifier: 
                keyid:BD:6F:5F:40:3C:B5:00:23:7B:92:74:71:02:96:84:87:72:F1:5B:BF
                DirName:/CN=Easy-RSA CA
                serial:23:68:9D:E8:A1:57:C3:F9:C4:BF:D6:D1:85:5B:03:87:33:3F:A3:39

            X509v3 Extended Key Usage: 
                TLS Web Client Authentication
            X509v3 Key Usage: 
                Digital Signature
    Signature Algorithm: sha256WithRSAEncryption
         50:a1:11:bf:c5:da:06:ae:f2:e1:5e:b2:9a:87:67:7d:4b:39:
         16:3f:26:ae:68:ef:9b:cf:89:e8:4a:f1:77:94:b4:3f:fb:20:
         fc:62:ce:5b:53:3a:54:48:69:5e:bc:e1:19:0e:58:ea:f8:37:
         cd:82:7d:d9:e3:9b:fc:bb:d3:e3:85:28:ac:75:8c:e0:4f:a2:
         47:95:24:55:ec:25:d2:72:c3:af:60:74:3a:ef:56:fd:bf:b2:
         e8:0a:86:55:28:2e:f3:85:02:fc:09:49:6f:d8:4b:c3:f9:03:
         05:4e:86:89:87:96:f5:f8:bf:b5:c2:4b:d4:73:d2:3f:42:a7:
         2c:e1:e4:4f:46:c8:f1:66:9e:7e:ac:ff:0b:d7:da:af:45:a2:
         ec:b7:b9:01:e9:d2:9f:48:68:54:dd:ba:37:fe:0c:36:85:4f:
         aa:f7:43:a5:39:93:e3:c9:d4:31:8e:88:e4:22:d1:35:3a:c4:
         5d:8e:05:59:83:10:b7:3f:21:10:bd:db:06:de:7f:6a:6a:ab:
         3c:81:50:dd:41:43:3d:6c:99:bf:64:3e:fa:e8:f4:fd:17:de:
         f9:6a:00:66:01:7c:fb:98:9a:be:9d:58:f8:85:0f:4d:fa:65:
         bb:da:d4:ce:b8:90:17:85:5f:b3:cd:30:0b:78:68:f5:40:a4:
         93:3a:25:d7
-----BEGIN CERTIFICATE-----
MIIDWjCCAkKgAwIBAgIRAPw5fY8COkY+OLv/GJGmjXowDQYJKoZIhvcNAQELBQAw
FjEUMBIGA1UEAwwLRWFzeS1SU0EgQ0EwHhcNMjIwNTA2MDc0NzM0WhcNMjQwODA4
MDc0NzM0WjAWMRQwEgYDVQQDDAtrYWZrYS1kZWJ1ZzCCASIwDQYJKoZIhvcNAQEB
BQADggEPADCCAQoCggEBAJla3e63bjLWPkzkt+jzgjkq6y/Plu+FH3C2wItxhQ9g
8AOLENvTARsE6dfYfUXEhOXi3YIaFJiuG9Mlmh8to/4oQk5HpddnGwwP7LB3iuyb
qDiSsFSdtU8/15YUmhAxof881UHvBsGDjr2W0P5n1O+elhcAZGuHwQXJGiu/yfkK
wVa4AjBMItqAusfRxil1thNLH6BQJ4zSG0so7V+83/lV5GKi1biZb4xdRZVddXp3
OL2GEhsWBeFFHLeABigCbUF9nJlFR621YjAZ81eU4wFCk5rudJ3QyHMojR5URWjE
M4Ierke8Z2iVFi/+bVMUGPM3S6zOOpuSVZmAC62kDj8CAwEAAaOBojCBnzAJBgNV
HRMEAjAAMB0GA1UdDgQWBBTnBt89Fsp4FpgYovL71NY1ZBmQPzBRBgNVHSMESjBI
gBS9b19APLUAI3uSdHECloSHcvFbv6EapBgwFjEUMBIGA1UEAwwLRWFzeS1SU0Eg
Q0GCFCNoneihV8P5xL/W0YVbA4czP6M5MBMGA1UdJQQMMAoGCCsGAQUFBwMCMAsG
A1UdDwQEAwIHgDANBgkqhkiG9w0BAQsFAAOCAQEAUKERv8XaBq7y4V6ymodnfUs5
Fj8mrmjvm8+J6Erxd5S0P/sg/GLOW1M6VEhpXrzhGQ5Y6vg3zYJ92eOb/LvT44Uo
rHWM4E+iR5UkVewl0nLDr2B0Ou9W/b+y6AqGVSgu84UC/AlJb9hLw/kDBU6GiYeW
9fi/tcJL1HPSP0KnLOHkT0bI8Waefqz/C9far0Wi7Le5AenSn0hoVN26N/4MNoVP
qvdDpTmT48nUMY6I5CLRNTrEXY4FWYMQtz8hEL3bBt5/amqrPIFQ3UFDPWyZv2Q+
+uj0/Rfe+WoAZgF8+5iavp1Y+IUPTfplu9rUzriQF4Vfs80wC3ho9UCkkzol1w==
-----END CERTIFICATE-----
