Certificate:
    Data:
        Version: 3 (0x2)
        Serial Number:
            a7:d5:2d:97:65:f3:d6:b7:c5:e8:ec:3b:09:87:ad:6c
    Signature Algorithm: sha256WithRSAEncryption
        Issuer: CN=Easy-RSA CA
        Validity
            Not Before: May  6 07:48:02 2022 GMT
            Not After : Aug  8 07:48:02 2024 GMT
        Subject: CN=kafka-to-blob
        Subject Public Key Info:
            Public Key Algorithm: rsaEncryption
                Public-Key: (2048 bit)
                Modulus:
                    00:d2:99:1d:6a:ef:63:29:86:ce:fb:29:2e:f7:08:
                    c1:7a:e5:d2:72:6e:22:4a:45:f6:2a:cb:df:15:f5:
                    08:4e:db:ef:cd:6c:d5:b2:30:9f:8f:00:59:a1:dd:
                    fe:bf:49:10:69:1d:d2:d7:9b:e5:93:91:96:68:a8:
                    31:74:bb:15:02:b2:4c:2c:ae:75:e2:31:8c:03:20:
                    cb:13:ac:ab:b2:00:39:50:6a:d2:bb:40:d2:51:59:
                    3d:59:59:3b:b9:25:7f:2e:d4:5b:81:af:84:fe:8a:
                    9d:57:d5:c3:d1:6a:53:32:85:bd:3e:83:d5:0e:86:
                    ff:8a:45:81:b7:f6:e1:c5:88:43:3f:9a:22:53:d6:
                    7c:d6:d6:1e:1f:08:6c:dd:30:7c:ef:98:14:59:59:
                    4f:57:2f:4c:3a:16:36:a9:14:d1:55:79:76:46:65:
                    f5:fd:29:9e:ff:02:69:17:c1:66:ed:76:b5:92:20:
                    a1:e4:4d:c3:99:af:f6:c2:80:c9:ab:41:8b:37:33:
                    71:e4:c9:f9:5f:53:17:0a:4b:b0:d6:8b:99:8d:eb:
                    28:00:7d:e1:e8:22:76:16:e7:68:39:05:aa:bf:c5:
                    12:95:68:5a:0a:10:e1:7c:b3:70:2b:bd:eb:16:9d:
                    1e:4c:2d:22:af:d4:7a:4a:71:18:b8:7c:50:28:0a:
                    20:95
                Exponent: 65537 (0x10001)
        X509v3 extensions:
            X509v3 Basic Constraints: 
                CA:FALSE
            X509v3 Subject Key Identifier: 
                5D:4E:CD:CB:CC:C5:C1:F8:01:BA:20:78:48:7F:AD:65:FC:87:30:04
            X509v3 Authority Key Identifier: 
                keyid:BD:6F:5F:40:3C:B5:00:23:7B:92:74:71:02:96:84:87:72:F1:5B:BF
                DirName:/CN=Easy-RSA CA
                serial:23:68:9D:E8:A1:57:C3:F9:C4:BF:D6:D1:85:5B:03:87:33:3F:A3:39

            X509v3 Extended Key Usage: 
                TLS Web Client Authentication
            X509v3 Key Usage: 
                Digital Signature
    Signature Algorithm: sha256WithRSAEncryption
         22:7a:69:92:86:0f:70:bf:1c:16:1e:03:cd:47:a6:e3:a2:da:
         9d:3e:21:70:3c:80:c2:79:50:d3:2c:dd:0d:ee:98:66:98:e1:
         b2:98:74:b6:d1:3e:cd:d9:f1:0d:4c:1e:11:0b:66:bb:90:e5:
         86:ff:1a:ed:98:7c:bc:3b:f3:eb:dd:eb:ea:6f:f1:52:0d:be:
         06:71:18:d3:be:f9:e5:a5:b2:16:2c:10:68:68:69:2f:5d:e5:
         98:88:19:b6:3c:3c:ea:82:18:67:20:64:4e:b6:61:9c:98:98:
         c8:47:f7:e1:e2:52:a6:01:b8:ad:6d:11:c2:08:1e:7d:cf:3b:
         a8:2b:f1:34:76:60:1d:68:1c:29:e6:08:48:c8:5f:2c:85:63:
         04:8f:f5:a0:d2:55:43:7f:d8:fd:1b:dc:06:56:c3:80:d0:1e:
         6c:0a:43:a6:a2:ef:72:61:ab:88:7d:c7:87:39:8b:87:6b:cd:
         f6:a7:f0:ed:2a:b5:26:29:a1:08:33:b9:da:d7:a6:7d:1b:8b:
         28:97:a8:ae:48:4f:2a:81:50:fb:1b:f2:ea:9f:d4:93:be:0c:
         5a:6d:ab:14:6f:4b:57:df:f6:74:d2:d3:5d:08:f3:91:5d:36:
         5c:8c:dc:e8:e8:ca:9f:6a:2b:20:b2:52:27:02:4b:45:fb:e3:
         4b:a9:71:25
-----BEGIN CERTIFICATE-----
MIIDXDCCAkSgAwIBAgIRAKfVLZdl89a3xejsOwmHrWwwDQYJKoZIhvcNAQELBQAw
FjEUMBIGA1UEAwwLRWFzeS1SU0EgQ0EwHhcNMjIwNTA2MDc0ODAyWhcNMjQwODA4
MDc0ODAyWjAYMRYwFAYDVQQDDA1rYWZrYS10by1ibG9iMIIBIjANBgkqhkiG9w0B
AQEFAAOCAQ8AMIIBCgKCAQEA0pkdau9jKYbO+yku9wjBeuXScm4iSkX2KsvfFfUI
TtvvzWzVsjCfjwBZod3+v0kQaR3S15vlk5GWaKgxdLsVArJMLK514jGMAyDLE6yr
sgA5UGrSu0DSUVk9WVk7uSV/LtRbga+E/oqdV9XD0WpTMoW9PoPVDob/ikWBt/bh
xYhDP5oiU9Z81tYeHwhs3TB875gUWVlPVy9MOhY2qRTRVXl2RmX1/Sme/wJpF8Fm
7Xa1kiCh5E3Dma/2woDJq0GLNzNx5Mn5X1MXCkuw1ouZjesoAH3h6CJ2FudoOQWq
v8USlWhaChDhfLNwK73rFp0eTC0ir9R6SnEYuHxQKAoglQIDAQABo4GiMIGfMAkG
A1UdEwQCMAAwHQYDVR0OBBYEFF1OzcvMxcH4AbogeEh/rWX8hzAEMFEGA1UdIwRK
MEiAFL1vX0A8tQAje5J0cQKWhIdy8Vu/oRqkGDAWMRQwEgYDVQQDDAtFYXN5LVJT
QSBDQYIUI2id6KFXw/nEv9bRhVsDhzM/ozkwEwYDVR0lBAwwCgYIKwYBBQUHAwIw
CwYDVR0PBAQDAgeAMA0GCSqGSIb3DQEBCwUAA4IBAQAiemmShg9wvxwWHgPNR6bj
otqdPiFwPIDCeVDTLN0N7phmmOGymHS20T7N2fENTB4RC2a7kOWG/xrtmHy8O/Pr
3evqb/FSDb4GcRjTvvnlpbIWLBBoaGkvXeWYiBm2PDzqghhnIGROtmGcmJjIR/fh
4lKmAbitbRHCCB59zzuoK/E0dmAdaBwp5ghIyF8shWMEj/Wg0lVDf9j9G9wGVsOA
0B5sCkOmou9yYauIfceHOYuHa832p/DtKrUmKaEIM7na16Z9G4sol6iuSE8qgVD7
G/Lqn9STvgxabasUb0tX3/Z00tNdCPORXTZcjNzo6MqfaisgslInAktF++NLqXEl
-----END CERTIFICATE-----
